target datalayout = "e-m:e-p270:32:32-p271:32:32-p272:64:64-i64:64-i128:128-f80:128-n8:16:32:64-S128"
target triple = "x86_64-unknown-linux-gnu"

%"class.QuantLib::Date" = type { i64 }
%"class.boost::detail::shared_count" = type { ptr }
%"class.boost::optional" = type { %"class.boost::optional_detail::tc_optional_base" }
%"class.boost::optional_detail::tc_optional_base" = type { i8, i8 }
%"class.QuantLib::DayCounter" = type { %"class.boost::shared_ptr.16" }
%"class.boost::shared_ptr.16" = type { ptr, %"class.boost::detail::shared_count" }
%"class.boost::shared_ptr.51" = type { ptr, %"class.boost::detail::shared_count" }
%"class.QuantLib::Period" = type { i32, i32 }
%"class.QuantLib::Calendar" = type { %"class.boost::shared_ptr.17" }
%"class.boost::shared_ptr.17" = type { ptr, %"class.boost::detail::shared_count" }
%"class.QuantLib::IborLeg" = type <{ %"class.QuantLib::Schedule", %"class.boost::shared_ptr.51", %"class.std::vector.35", %"class.QuantLib::DayCounter", i32, i32, %"class.QuantLib::Calendar", %"class.std::vector.66", %"class.std::vector.35", %"class.std::vector.35", %"class.std::vector.35", %"class.std::vector.35", i8, i8, [2 x i8], %"class.QuantLib::Period", [4 x i8], %"class.QuantLib::Calendar", i32, i8, %"class.boost::optional", i8 }>
%"class.QuantLib::Schedule" = type { %"class.boost::optional.57", %"class.QuantLib::Calendar", i32, %"class.boost::optional.58", %"class.boost::optional.60", %"class.boost::optional", %"class.QuantLib::Date", %"class.QuantLib::Date", %"class.std::vector.30", %"class.std::vector.62" }
%"class.boost::optional.57" = type { %"class.boost::optional_detail::optional_base" }
%"class.boost::optional_detail::optional_base" = type { i8, [3 x i8], %"class.boost::optional_detail::aligned_storage" }
%"class.boost::optional_detail::aligned_storage" = type { %"union.boost::optional_detail::aligned_storage<QuantLib::Period>::dummy_u" }
%"union.boost::optional_detail::aligned_storage<QuantLib::Period>::dummy_u" = type { [8 x i8] }
%"class.boost::optional.58" = type { %"class.boost::optional_detail::tc_optional_base.59" }
%"class.boost::optional_detail::tc_optional_base.59" = type { i8, i32 }
%"class.boost::optional.60" = type { %"class.boost::optional_detail::tc_optional_base.61" }
%"class.boost::optional_detail::tc_optional_base.61" = type { i8, i32 }
%"class.std::vector.30" = type { %"struct.std::_Vector_base.31" }
%"struct.std::_Vector_base.31" = type { %"struct.std::_Vector_base<QuantLib::Date, std::allocator<QuantLib::Date>>::_Vector_impl" }
%"struct.std::_Vector_base<QuantLib::Date, std::allocator<QuantLib::Date>>::_Vector_impl" = type { %"struct.std::_Vector_base<QuantLib::Date, std::allocator<QuantLib::Date>>::_Vector_impl_data" }
%"struct.std::_Vector_base<QuantLib::Date, std::allocator<QuantLib::Date>>::_Vector_impl_data" = type { ptr, ptr, ptr }
%"class.std::vector.62" = type { %"struct.std::_Bvector_base" }
%"struct.std::_Bvector_base" = type { %"struct.std::_Bvector_base<std::allocator<bool>>::_Bvector_impl" }
%"struct.std::_Bvector_base<std::allocator<bool>>::_Bvector_impl" = type { %"struct.std::_Bvector_base<std::allocator<bool>>::_Bvector_impl_data" }
%"struct.std::_Bvector_base<std::allocator<bool>>::_Bvector_impl_data" = type { %"struct.std::_Bit_iterator", %"struct.std::_Bit_iterator", ptr }
%"struct.std::_Bit_iterator" = type { %"struct.std::_Bit_iterator_base.base", [4 x i8] }
%"struct.std::_Bit_iterator_base.base" = type <{ ptr, i32 }>
%"class.std::vector.66" = type { %"struct.std::_Vector_base.67" }
%"struct.std::_Vector_base.67" = type { %"struct.std::_Vector_base<unsigned int, std::allocator<unsigned int>>::_Vector_impl" }
%"struct.std::_Vector_base<unsigned int, std::allocator<unsigned int>>::_Vector_impl" = type { %"struct.std::_Vector_base<unsigned int, std::allocator<unsigned int>>::_Vector_impl_data" }
%"struct.std::_Vector_base<unsigned int, std::allocator<unsigned int>>::_Vector_impl_data" = type { ptr, ptr, ptr }
%"class.std::vector.35" = type { %"struct.std::_Vector_base.36" }
%"struct.std::_Vector_base.36" = type { %"struct.std::_Vector_base<double, std::allocator<double>>::_Vector_impl" }
%"struct.std::_Vector_base<double, std::allocator<double>>::_Vector_impl" = type { %"struct.std::_Vector_base<double, std::allocator<double>>::_Vector_impl_data" }
%"struct.std::_Vector_base<double, std::allocator<double>>::_Vector_impl_data" = type { ptr, ptr, ptr }

; Function Attrs: mustprogress nounwind uwtable
define linkonce_odr void @_ZN5boost15optional_detail16tc_optional_baseIbE9constructERKb(ptr noundef nonnull align 1 dereferenceable(2) %this, ptr noundef nonnull align 1 dereferenceable(1) %val) #1 comdat align 2 {
entry:
  %this.addr = alloca ptr, align 8
  %val.addr = alloca ptr, align 8
  store ptr %this, ptr %this.addr, align 8, !tbaa !3
  store ptr %val, ptr %val.addr, align 8, !tbaa !3
  %this1 = load ptr, ptr %this.addr, align 8
  %0 = load ptr, ptr %val.addr, align 8, !tbaa !3
  %1 = load i8, ptr %0, align 1, !tbaa !37, !range !15, !noundef !16
  %loadedv = trunc i8 %1 to i1
  %m_storage = getelementptr inbounds nuw %"class.boost::optional_detail::tc_optional_base", ptr %this1, i32 0, i32 1
  %storedv = zext i1 %loadedv to i8
  store i8 %storedv, ptr %m_storage, align 1, !tbaa !220
  %m_initialized = getelementptr inbounds nuw %"class.boost::optional_detail::tc_optional_base", ptr %this1, i32 0, i32 0
  store i8 1, ptr %m_initialized, align 1, !tbaa !211
  ret void
}

; Function Attrs: mustprogress uwtable
define linkonce_odr void @_ZN5boost15optional_detail16tc_optional_baseIbE6assignERKb(ptr noundef nonnull align 1 dereferenceable(2) %this, ptr noundef nonnull align 1 dereferenceable(1) %val) #2 comdat align 2 {
entry:
  %this.addr = alloca ptr, align 8
  %val.addr = alloca ptr, align 8
  store ptr %this, ptr %this.addr, align 8, !tbaa !3
  store ptr %val, ptr %val.addr, align 8, !tbaa !3
  %this1 = load ptr, ptr %this.addr, align 8
  %0 = load ptr, ptr %val.addr, align 8, !tbaa !3
  call void @_ZN5boost15optional_detail16tc_optional_baseIbE9constructERKb(ptr noundef nonnull align 1 dereferenceable(2) %this1, ptr noundef nonnull align 1 dereferenceable(1) %0)
  ret void
}

; Function Attrs: inlinehint mustprogress nounwind uwtable
define linkonce_odr noundef nonnull align 1 dereferenceable(1) ptr @_ZN5boost7forwardIbEEOT_RNS_11move_detail16remove_referenceIS1_E4typeE(ptr noundef nonnull align 1 dereferenceable(1) %t) #5 comdat {
entry:
  %t.addr = alloca ptr, align 8
  store ptr %t, ptr %t.addr, align 8, !tbaa !3
  %0 = load ptr, ptr %t.addr, align 8, !tbaa !3
  ret ptr %0
}

; Function Attrs: mustprogress uwtable
define linkonce_odr noundef nonnull align 1 dereferenceable(2) ptr @_ZN5boost8optionalIbEaSIbEENS_9enable_ifINS_7is_sameIbNS_5decayIT_E4typeEEERS1_E4typeEOS6_(ptr noundef nonnull align 1 dereferenceable(2) %this, ptr noundef nonnull align 1 dereferenceable(1) %val) #2 comdat align 2 {
entry:
  %this.addr = alloca ptr, align 8
  %val.addr = alloca ptr, align 8
  store ptr %this, ptr %this.addr, align 8, !tbaa !3
  store ptr %val, ptr %val.addr, align 8, !tbaa !3
  %this1 = load ptr, ptr %this.addr, align 8
  %0 = load ptr, ptr %val.addr, align 8, !tbaa !3
  %call = call noundef nonnull align 1 dereferenceable(1) ptr @_ZN5boost7forwardIbEEOT_RNS_11move_detail16remove_referenceIS1_E4typeE(ptr noundef nonnull align 1 dereferenceable(1) %0) #14
  call void @_ZN5boost15optional_detail16tc_optional_baseIbE6assignERKb(ptr noundef nonnull align 1 dereferenceable(2) %this1, ptr noundef nonnull align 1 dereferenceable(1) %call)
  ret ptr %this1
}

; Function Attrs: mustprogress uwtable
define noundef nonnull align 8 dereferenceable(375) ptr @_ZN8QuantLib7IborLeg16withAtParCouponsEb(ptr noundef nonnull align 8 dereferenceable(375) %this, i1 noundef zeroext %b) #2 align 2 {
entry:
  %this.addr = alloca ptr, align 8
  %b.addr = alloca i8, align 1
  %ref.tmp = alloca i8, align 1
  store ptr %this, ptr %this.addr, align 8, !tbaa !3
  %storedv = zext i1 %b to i8
  store i8 %storedv, ptr %b.addr, align 1, !tbaa !37
  %this1 = load ptr, ptr %this.addr, align 8
  call void @llvm.lifetime.start.p0(i64 1, ptr %ref.tmp) #14
  %0 = load i8, ptr %b.addr, align 1, !tbaa !37, !range !15, !noundef !16
  %loadedv = trunc i8 %0 to i1
  %lnot = xor i1 %loadedv, true
  %storedv2 = zext i1 %lnot to i8
  store i8 %storedv2, ptr %ref.tmp, align 1, !tbaa !37
  %useIndexedCoupons_ = getelementptr inbounds nuw %"class.QuantLib::IborLeg", ptr %this1, i32 0, i32 20
  %call = call noundef nonnull align 1 dereferenceable(2) ptr @_ZN5boost8optionalIbEaSIbEENS_9enable_ifINS_7is_sameIbNS_5decayIT_E4typeEEERS1_E4typeEOS6_(ptr noundef nonnull align 1 dereferenceable(2) %useIndexedCoupons_, ptr noundef nonnull align 1 dereferenceable(1) %ref.tmp)
  call void @llvm.lifetime.end.p0(i64 1, ptr %ref.tmp) #14
  ret ptr %this1
}